target datalayout = "e-m:e-p270:32:32-p271:32:32-p272:64:64-i64:64-i128:128-f80:128-n8:16:32:64-S128"
target triple = "x86_64-pc-linux-gnu"

%struct._zend_ini_entry = type { ptr, ptr, ptr, ptr, ptr, ptr, ptr, ptr, i32, i8, i8, i8 }

; Function Attrs: nounwind uwtable
define internal i32 @OnUpdateJitDebug(ptr noundef %0, ptr noundef %1, ptr noundef %2, ptr noundef %3, ptr noundef %4, i32 noundef %5) #0 {
  %7 = alloca i32, align 4
  %8 = alloca ptr, align 8
  %9 = alloca ptr, align 8
  %10 = alloca ptr, align 8
  %11 = alloca ptr, align 8
  %12 = alloca ptr, align 8
  %13 = alloca i32, align 4
  %14 = alloca ptr, align 8
  %15 = alloca i64, align 8
  store ptr %0, ptr %8, align 8
  store ptr %1, ptr %9, align 8
  store ptr %2, ptr %10, align 8
  store ptr %3, ptr %11, align 8
  store ptr %4, ptr %12, align 8
  store i32 %5, ptr %13, align 4
  %16 = load ptr, ptr %11, align 8
  %17 = load ptr, ptr %10, align 8
  %18 = ptrtoint ptr %17 to i64
  %19 = getelementptr inbounds i8, ptr %16, i64 %18
  store ptr %19, ptr %14, align 8
  %20 = load ptr, ptr %9, align 8
  %21 = load ptr, ptr %8, align 8
  %22 = getelementptr inbounds %struct._zend_ini_entry, ptr %21, i32 0, i32 0
  %23 = load ptr, ptr %22, align 8
  %24 = call i64 @zend_ini_parse_quantity_warn(ptr noundef %20, ptr noundef %23)
  store i64 %24, ptr %15, align 8
  %25 = load ptr, ptr %14, align 8
  %26 = load i64, ptr %25, align 8
  %27 = load i64, ptr %15, align 8
  %28 = load i32, ptr %13, align 4
  %29 = call i32 @zend_jit_debug_config(i64 noundef %26, i64 noundef %27, i32 noundef %28)
  %30 = icmp eq i32 %29, 0
  br i1 %30, label %31, label %34

31:                                               ; preds = %6
  %32 = load i64, ptr %15, align 8
  %33 = load ptr, ptr %14, align 8
  store i64 %32, ptr %33, align 8
  store i32 0, ptr %7, align 4
  br label %35

34:                                               ; preds = %6
  store i32 -1, ptr %7, align 4
  br label %35

35:                                               ; preds = %34, %31
  %36 = load i32, ptr %7, align 4
  ret i32 %36
}