; Function Attrs: nounwind uwtable
define internal noundef i32 @OnUpdateJitDebug(ptr nocapture noundef readonly %0, ptr noundef %1, ptr noundef %2, ptr nocapture noundef %3, ptr nocapture readnone %4, i32 noundef %5) #0 {
  %7 = ptrtoint ptr %2 to i64
  %8 = getelementptr inbounds i8, ptr %3, i64 %7
  %9 = load ptr, ptr %0, align 8
  %10 = tail call i64 @zend_ini_parse_quantity_warn(ptr noundef %1, ptr noundef %9) #14
  %11 = load i64, ptr %8, align 8
  %12 = tail call i32 @zend_jit_debug_config(i64 noundef %11, i64 noundef %10, i32 noundef %5) #14
  %13 = icmp eq i32 %12, 0
  br i1 %13, label %14, label %15

14:                                               ; preds = %6
  store i64 %10, ptr %8, align 8
  br label %15

15:                                               ; preds = %6, %14
  %.0 = phi i32 [ 0, %14 ], [ -1, %6 ]
  ret i32 %.0
}